; Function Attrs: nounwind uwtable
define internal void @warn_builtin(ptr noundef %0, ptr noundef %1) #6 {
  tail call void @trace2_cmd_error_va_fl(ptr noundef nonnull @.str.3, i32 noundef 96, ptr noundef %0, ptr noundef %1) #17
  %3 = load i32, ptr @git_gettext_enabled, align 4, !tbaa !12
  %.not4.i = icmp eq i32 %3, 0
  br i1 %.not4.i, label %_.exit, label %4

4:                                                ; preds = %2
  %5 = tail call ptr @dcgettext(ptr noundef null, ptr noundef nonnull @.str.10, i32 noundef 5) #17
  br label %_.exit

_.exit:                                           ; preds = %2, %4
  %.0.i = phi ptr [ %5, %4 ], [ @.str.10, %2 ]
  %6 = load ptr, ptr @stderr, align 8, !tbaa !10
  tail call fastcc void @vfreportf(ptr noundef %6, ptr noundef %.0.i, ptr noundef %0, ptr noundef %1)
  ret void
}